target datalayout = "e-m:e-p270:32:32-p271:32:32-p272:64:64-i64:64-i128:128-f80:128-n8:16:32:64-S128"
target triple = "x86_64-pc-linux-gnu"

%struct.avifMatrixCoefficientsTable = type { i16, ptr, float, float }
%struct.avifImage = type { i32, i32, i32, i32, i32, i32, [3 x ptr], [3 x i32], i32, ptr, i32, i32, i32, %struct.avifRWData, i16, i16, i16, %struct.avifContentLightLevelInformationBox, i32, %struct.avifPixelAspectRatioBox, %struct.avifCleanApertureBox, %struct.avifImageRotation, %struct.avifImageMirror, %struct.avifRWData, %struct.avifRWData }
%struct.avifContentLightLevelInformationBox = type { i16, i16 }
%struct.avifPixelAspectRatioBox = type { i32, i32 }
%struct.avifCleanApertureBox = type { i32, i32, i32, i32, i32, i32, i32, i32 }
%struct.avifImageRotation = type { i8 }
%struct.avifImageMirror = type { i8 }
%struct.avifRWData = type { ptr, i64 }

; Function Attrs: nounwind uwtable
define internal i32 @calcYUVInfoFromCICP(ptr noundef %0, ptr noundef %1) #0 {
  %3 = alloca i32, align 4
  %4 = alloca ptr, align 8
  %5 = alloca ptr, align 8
  %6 = alloca i32, align 4
  %7 = alloca ptr, align 8
  store ptr %0, ptr %4, align 8
  store ptr %1, ptr %5, align 8
  %8 = load ptr, ptr %4, align 8
  %9 = getelementptr inbounds nuw %struct.avifImage, ptr %8, i32 0, i32 16
  %10 = load i16, ptr %9, align 4
  %11 = zext i16 %10 to i32
  %12 = icmp eq i32 %11, 12
  br i1 %12, label %13, label %18

13:                                               ; preds = %2
  %14 = load ptr, ptr %4, align 8
  %15 = getelementptr inbounds nuw %struct.avifImage, ptr %14, i32 0, i32 14
  %16 = load i16, ptr %15, align 8
  %17 = load ptr, ptr %5, align 8
  call void @avifColorPrimariesComputeYCoeffs(i16 noundef zeroext %16, ptr noundef %17)
  store i32 1, ptr %3, align 4
  br label %62

18:                                               ; preds = %2
  store i32 0, ptr %6, align 4
  br label %19

19:                                               ; preds = %57, %18
  %20 = load i32, ptr %6, align 4
  %21 = icmp slt i32 %20, 6
  br i1 %21, label %22, label %60

22:                                               ; preds = %19
  %23 = load i32, ptr %6, align 4
  %24 = sext i32 %23 to i64
  %25 = getelementptr inbounds [6 x %struct.avifMatrixCoefficientsTable], ptr @matrixCoefficientsTables, i64 0, i64 %24
  store ptr %25, ptr %7, align 8
  %26 = load ptr, ptr %7, align 8
  %27 = getelementptr inbounds nuw %struct.avifMatrixCoefficientsTable, ptr %26, i32 0, i32 0
  %28 = load i16, ptr %27, align 8
  %29 = zext i16 %28 to i32
  %30 = load ptr, ptr %4, align 8
  %31 = getelementptr inbounds nuw %struct.avifImage, ptr %30, i32 0, i32 16
  %32 = load i16, ptr %31, align 4
  %33 = zext i16 %32 to i32
  %34 = icmp eq i32 %29, %33
  br i1 %34, label %35, label %56

35:                                               ; preds = %22
  %36 = load ptr, ptr %7, align 8
  %37 = getelementptr inbounds nuw %struct.avifMatrixCoefficientsTable, ptr %36, i32 0, i32 2
  %38 = load float, ptr %37, align 8
  %39 = load ptr, ptr %5, align 8
  %40 = getelementptr inbounds float, ptr %39, i64 0
  store float %38, ptr %40, align 4
  %41 = load ptr, ptr %7, align 8
  %42 = getelementptr inbounds nuw %struct.avifMatrixCoefficientsTable, ptr %41, i32 0, i32 3
  %43 = load float, ptr %42, align 4
  %44 = load ptr, ptr %5, align 8
  %45 = getelementptr inbounds float, ptr %44, i64 2
  store float %43, ptr %45, align 4
  %46 = load ptr, ptr %5, align 8
  %47 = getelementptr inbounds float, ptr %46, i64 0
  %48 = load float, ptr %47, align 4
  %49 = fsub float 1.000000e+00, %48
  %50 = load ptr, ptr %5, align 8
  %51 = getelementptr inbounds float, ptr %50, i64 2
  %52 = load float, ptr %51, align 4
  %53 = fsub float %49, %52
  %54 = load ptr, ptr %5, align 8
  %55 = getelementptr inbounds float, ptr %54, i64 1
  store float %53, ptr %55, align 4
  store i32 1, ptr %3, align 4
  br label %62

56:                                               ; preds = %22
  br label %57

57:                                               ; preds = %56
  %58 = load i32, ptr %6, align 4
  %59 = add nsw i32 %58, 1
  store i32 %59, ptr %6, align 4
  br label %19, !llvm.loop !7

60:                                               ; preds = %19
  br label %61

61:                                               ; preds = %60
  store i32 0, ptr %3, align 4
  br label %62

62:                                               ; preds = %61, %35, %13
  %63 = load i32, ptr %3, align 4
  ret i32 %63
}

; Function Attrs: nounwind uwtable
define hidden void @avifCalcYUVCoefficients(ptr noundef %0, ptr noundef %1, ptr noundef %2, ptr noundef %3) #0 {
  %5 = alloca ptr, align 8
  %6 = alloca ptr, align 8
  %7 = alloca ptr, align 8
  %8 = alloca ptr, align 8
  %9 = alloca float, align 4
  %10 = alloca float, align 4
  %11 = alloca float, align 4
  %12 = alloca [3 x float], align 4
  store ptr %0, ptr %5, align 8
  store ptr %1, ptr %6, align 8
  store ptr %2, ptr %7, align 8
  store ptr %3, ptr %8, align 8
  store float 0x3FD322D0E0000000, ptr %9, align 4
  store float 0x3FBD2F1AA0000000, ptr %10, align 4
  %13 = load float, ptr %9, align 4
  %14 = fsub float 1.000000e+00, %13
  %15 = load float, ptr %10, align 4
  %16 = fsub float %14, %15
  store float %16, ptr %11, align 4
  %17 = load ptr, ptr %5, align 8
  %18 = getelementptr inbounds [3 x float], ptr %12, i64 0, i64 0
  %19 = call i32 @calcYUVInfoFromCICP(ptr noundef %17, ptr noundef %18)
  %20 = icmp ne i32 %19, 0
  br i1 %20, label %21, label %28

21:                                               ; preds = %4
  %22 = getelementptr inbounds [3 x float], ptr %12, i64 0, i64 0
  %23 = load float, ptr %22, align 4
  store float %23, ptr %9, align 4
  %24 = getelementptr inbounds [3 x float], ptr %12, i64 0, i64 1
  %25 = load float, ptr %24, align 4
  store float %25, ptr %11, align 4
  %26 = getelementptr inbounds [3 x float], ptr %12, i64 0, i64 2
  %27 = load float, ptr %26, align 4
  store float %27, ptr %10, align 4
  br label %28

28:                                               ; preds = %21, %4
  %29 = load float, ptr %9, align 4
  %30 = load ptr, ptr %6, align 8
  store float %29, ptr %30, align 4
  %31 = load float, ptr %11, align 4
  %32 = load ptr, ptr %7, align 8
  store float %31, ptr %32, align 4
  %33 = load float, ptr %10, align 4
  %34 = load ptr, ptr %8, align 8
  store float %33, ptr %34, align 4
  ret void
}