; Function Attrs: nofree norecurse nosync nounwind memory(argmem: readwrite) uwtable
define hidden void @avifCalcYUVCoefficients(ptr nocapture noundef readonly %0, ptr nocapture noundef writeonly %1, ptr nocapture noundef writeonly %2, ptr nocapture noundef writeonly %3) local_unnamed_addr #0 {
  %5 = alloca [3 x float], align 4
  %6 = getelementptr inbounds nuw i8, ptr %0, i64 108
  %7 = load i16, ptr %6, align 4
  %8 = icmp eq i16 %7, 12
  br i1 %8, label %9, label %.preheader.i

9:                                                ; preds = %4
  %10 = getelementptr inbounds nuw i8, ptr %0, i64 104
  %11 = load i16, ptr %10, align 8
  call void @avifColorPrimariesComputeYCoeffs(i16 noundef zeroext %11, ptr noundef nonnull %5)
  %.pre = load float, ptr %5, align 4
  %.phi.trans.insert = getelementptr inbounds i8, ptr %5, i64 4
  %.pre13 = load float, ptr %.phi.trans.insert, align 4
  %.phi.trans.insert14 = getelementptr inbounds i8, ptr %5, i64 8
  %.pre15 = load float, ptr %.phi.trans.insert14, align 4
  br label %calcYUVInfoFromCICP.exit

12:                                               ; preds = %.preheader.i
  %indvars.iv.next.i = add nuw nsw i64 %indvars.iv.i, 1
  %exitcond.not.i = icmp eq i64 %indvars.iv.next.i, 6
  br i1 %exitcond.not.i, label %calcYUVInfoFromCICP.exit, label %.preheader.i, !llvm.loop !7

.preheader.i:                                     ; preds = %4, %12
  %indvars.iv.i = phi i64 [ %indvars.iv.next.i, %12 ], [ 0, %4 ]
  %13 = getelementptr inbounds [6 x %struct.avifMatrixCoefficientsTable], ptr @matrixCoefficientsTables, i64 0, i64 %indvars.iv.i
  %14 = load i16, ptr %13, align 8
  %15 = icmp eq i16 %14, %7
  br i1 %15, label %16, label %12

16:                                               ; preds = %.preheader.i
  %17 = getelementptr inbounds nuw i8, ptr %13, i64 16
  %18 = load float, ptr %17, align 8
  %19 = getelementptr inbounds nuw i8, ptr %13, i64 20
  %20 = load float, ptr %19, align 4
  %21 = fsub float 1.000000e+00, %18
  %22 = fsub float %21, %20
  br label %calcYUVInfoFromCICP.exit

calcYUVInfoFromCICP.exit:                         ; preds = %12, %16, %9
  %23 = phi float [ %.pre15, %9 ], [ %20, %16 ], [ 0x3FBD2F1AA0000000, %12 ]
  %24 = phi float [ %.pre, %9 ], [ %18, %16 ], [ 0x3FD322D0E0000000, %12 ]
  %25 = phi float [ %.pre13, %9 ], [ %22, %16 ], [ 0x3FE2C8B420000000, %12 ]
  store float %24, ptr %1, align 4
  store float %25, ptr %2, align 4
  store float %23, ptr %3, align 4
  ret void
}